target datalayout = "e-m:e-p270:32:32-p271:32:32-p272:64:64-i64:64-i128:128-f80:128-n8:16:32:64-S128"
target triple = "x86_64-unknown-linux-gnu"

%"struct.re2::RuneRange" = type { i32, i32 }
%"class.re2::CharClass" = type <{ i8, [3 x i8], i32, ptr, i32, [4 x i8] }>

; Function Attrs: mustprogress nounwind uwtable
define noundef zeroext i1 @_ZNK3re29CharClass8ContainsEi(ptr noundef nonnull align 8 dereferenceable(20) %this, i32 noundef %r) #0 align 2 {
entry:
  %retval = alloca i1, align 1
  %this.addr = alloca ptr, align 8
  %r.addr = alloca i32, align 4
  %rr = alloca ptr, align 8
  %n = alloca i32, align 4
  %m = alloca i32, align 4
  store ptr %this, ptr %this.addr, align 8
  store i32 %r, ptr %r.addr, align 4
  %this1 = load ptr, ptr %this.addr, align 8
  %ranges_ = getelementptr inbounds %"class.re2::CharClass", ptr %this1, i32 0, i32 3
  %0 = load ptr, ptr %ranges_, align 8
  store ptr %0, ptr %rr, align 8
  %nranges_ = getelementptr inbounds %"class.re2::CharClass", ptr %this1, i32 0, i32 4
  %1 = load i32, ptr %nranges_, align 8
  store i32 %1, ptr %n, align 4
  br label %while.cond

while.cond:                                       ; preds = %if.end9, %entry
  %2 = load i32, ptr %n, align 4
  %cmp = icmp sgt i32 %2, 0
  br i1 %cmp, label %while.body, label %while.end

while.body:                                       ; preds = %while.cond
  %3 = load i32, ptr %n, align 4
  %div = sdiv i32 %3, 2
  store i32 %div, ptr %m, align 4
  %4 = load ptr, ptr %rr, align 8
  %5 = load i32, ptr %m, align 4
  %idxprom = sext i32 %5 to i64
  %arrayidx = getelementptr inbounds %"struct.re2::RuneRange", ptr %4, i64 %idxprom
  %hi = getelementptr inbounds %"struct.re2::RuneRange", ptr %arrayidx, i32 0, i32 1
  %6 = load i32, ptr %hi, align 4
  %7 = load i32, ptr %r.addr, align 4
  %cmp2 = icmp slt i32 %6, %7
  br i1 %cmp2, label %if.then, label %if.else

if.then:                                          ; preds = %while.body
  %8 = load i32, ptr %m, align 4
  %add = add nsw i32 %8, 1
  %9 = load ptr, ptr %rr, align 8
  %idx.ext = sext i32 %add to i64
  %add.ptr = getelementptr inbounds %"struct.re2::RuneRange", ptr %9, i64 %idx.ext
  store ptr %add.ptr, ptr %rr, align 8
  %10 = load i32, ptr %m, align 4
  %add3 = add nsw i32 %10, 1
  %11 = load i32, ptr %n, align 4
  %sub = sub nsw i32 %11, %add3
  store i32 %sub, ptr %n, align 4
  br label %if.end9

if.else:                                          ; preds = %while.body
  %12 = load i32, ptr %r.addr, align 4
  %13 = load ptr, ptr %rr, align 8
  %14 = load i32, ptr %m, align 4
  %idxprom4 = sext i32 %14 to i64
  %arrayidx5 = getelementptr inbounds %"struct.re2::RuneRange", ptr %13, i64 %idxprom4
  %lo = getelementptr inbounds %"struct.re2::RuneRange", ptr %arrayidx5, i32 0, i32 0
  %15 = load i32, ptr %lo, align 4
  %cmp6 = icmp slt i32 %12, %15
  br i1 %cmp6, label %if.then7, label %if.else8

if.then7:                                         ; preds = %if.else
  %16 = load i32, ptr %m, align 4
  store i32 %16, ptr %n, align 4
  br label %if.end

if.else8:                                         ; preds = %if.else
  store i1 true, ptr %retval, align 1
  br label %return

if.end:                                           ; preds = %if.then7
  br label %if.end9

if.end9:                                          ; preds = %if.end, %if.then
  br label %while.cond, !llvm.loop !25

while.end:                                        ; preds = %while.cond
  store i1 false, ptr %retval, align 1
  br label %return

return:                                           ; preds = %while.end, %if.else8
  %17 = load i1, ptr %retval, align 1
  ret i1 %17
}