; Function Attrs: mustprogress nofree norecurse nosync nounwind willreturn memory(read, inaccessiblemem: none) uwtable
define noundef zeroext i1 @_ZNK3re29CharClass8ContainsEi(ptr nocapture noundef nonnull readonly align 8 dereferenceable(20) %this, i32 noundef %r) local_unnamed_addr #12 align 2 {
entry:
  %nranges_ = getelementptr inbounds i8, ptr %this, i64 16
  %0 = load i32, ptr %nranges_, align 8
  %cmp11 = icmp sgt i32 %0, 0
  br i1 %cmp11, label %while.body.preheader, label %return

while.body.preheader:                             ; preds = %entry
  %ranges_ = getelementptr inbounds i8, ptr %this, i64 8
  %1 = load ptr, ptr %ranges_, align 8
  br label %while.body

while.body:                                       ; preds = %while.body.preheader, %if.end9
  %n.013 = phi i32 [ %n.1, %if.end9 ], [ %0, %while.body.preheader ]
  %rr.012 = phi ptr [ %rr.1, %if.end9 ], [ %1, %while.body.preheader ]
  %div10 = lshr i32 %n.013, 1
  %idxprom = zext nneg i32 %div10 to i64
  %arrayidx = getelementptr inbounds %"struct.re2::RuneRange", ptr %rr.012, i64 %idxprom
  %hi = getelementptr inbounds i8, ptr %arrayidx, i64 4
  %2 = load i32, ptr %hi, align 4
  %cmp2 = icmp slt i32 %2, %r
  br i1 %cmp2, label %if.then, label %if.else

if.then:                                          ; preds = %while.body
  %add = add nuw nsw i32 %div10, 1
  %idx.ext = zext nneg i32 %add to i64
  %add.ptr = getelementptr inbounds %"struct.re2::RuneRange", ptr %rr.012, i64 %idx.ext
  %sub = sub nsw i32 %n.013, %add
  br label %if.end9

if.else:                                          ; preds = %while.body
  %3 = load i32, ptr %arrayidx, align 4
  %cmp6 = icmp sgt i32 %3, %r
  br i1 %cmp6, label %if.end9, label %return

if.end9:                                          ; preds = %if.else, %if.then
  %rr.1 = phi ptr [ %add.ptr, %if.then ], [ %rr.012, %if.else ]
  %n.1 = phi i32 [ %sub, %if.then ], [ %div10, %if.else ]
  %cmp = icmp sgt i32 %n.1, 0
  br i1 %cmp, label %while.body, label %return, !llvm.loop !50

return:                                           ; preds = %if.else, %if.end9, %entry
  %cmp.lcssa = phi i1 [ false, %entry ], [ false, %if.end9 ], [ true, %if.else ]
  ret i1 %cmp.lcssa
}